; Function Attrs: null_pointer_is_valid sspstrong uwtable
define internal fastcc ptr @knxip_tree_add_data(ptr noundef %0, ptr noundef %1, i32 noundef %2, i32 noundef %3, ptr noundef %4, ptr noundef %5, ptr noundef %6, ptr noundef %7, ptr noundef %8) unnamed_addr #0 {
  %10 = load i32, ptr @hf_bytes, align 4
  %11 = tail call ptr (ptr, i32, ptr, i32, i32, ptr, ptr, ...) @proto_tree_add_bytes_format(ptr noundef %0, i32 noundef %10, ptr noundef %1, i32 noundef %2, i32 noundef %3, ptr noundef null, ptr noundef nonnull @.str.343, ptr noundef %6)
  %.not = icmp eq ptr %7, null
  br i1 %.not, label %13, label %12

12:                                               ; preds = %9
  tail call void @col_append_str(ptr noundef %4, i32 noundef 25, ptr noundef nonnull %7)
  br label %13

13:                                               ; preds = %12, %9
  %.not27 = icmp eq ptr %8, null
  br i1 %.not27, label %15, label %14

14:                                               ; preds = %13
  tail call void (ptr, ptr, ...) @proto_item_append_text(ptr noundef %5, ptr noundef nonnull @.str.242, ptr noundef nonnull %8)
  br label %15

15:                                               ; preds = %14, %13
  %16 = icmp sgt i32 %3, 0
  br i1 %16, label %.lr.ph, label %._crit_edge

.lr.ph:                                           ; preds = %15
  br i1 %.not, label %.lr.ph.split.us, label %.lr.ph.split

.lr.ph.split.us:                                  ; preds = %.lr.ph
  br i1 %.not27, label %.lr.ph.split.us.split.us, label %.lr.ph.split.us.split

.lr.ph.split.us.split.us:                         ; preds = %.lr.ph.split.us, %.lr.ph.split.us.split.us
  %.029.us.us = phi i32 [ %19, %.lr.ph.split.us.split.us ], [ %2, %.lr.ph.split.us ]
  %.02428.us.us = phi i32 [ %20, %.lr.ph.split.us.split.us ], [ %3, %.lr.ph.split.us ]
  %17 = tail call zeroext i8 @tvb_get_uint8(ptr noundef %1, i32 noundef %.029.us.us)
  %18 = zext i8 %17 to i32
  tail call void (ptr, ptr, ...) @proto_item_append_text(ptr noundef %11, ptr noundef nonnull @.str.337, i32 noundef %18)
  %19 = add i32 %.029.us.us, 1
  %20 = add nsw i32 %.02428.us.us, -1
  %21 = icmp samesign ugt i32 %.02428.us.us, 1
  br i1 %21, label %.lr.ph.split.us.split.us, label %._crit_edge, !llvm.loop !29

.lr.ph.split.us.split:                            ; preds = %.lr.ph.split.us, %.lr.ph.split.us.split
  %.029.us = phi i32 [ %24, %.lr.ph.split.us.split ], [ %2, %.lr.ph.split.us ]
  %.02428.us = phi i32 [ %25, %.lr.ph.split.us.split ], [ %3, %.lr.ph.split.us ]
  %22 = tail call zeroext i8 @tvb_get_uint8(ptr noundef %1, i32 noundef %.029.us)
  %23 = zext i8 %22 to i32
  tail call void (ptr, ptr, ...) @proto_item_append_text(ptr noundef %5, ptr noundef nonnull @.str.267, i32 noundef %23)
  tail call void (ptr, ptr, ...) @proto_item_append_text(ptr noundef %11, ptr noundef nonnull @.str.337, i32 noundef %23)
  %24 = add i32 %.029.us, 1
  %25 = add nsw i32 %.02428.us, -1
  %26 = icmp samesign ugt i32 %.02428.us, 1
  br i1 %26, label %.lr.ph.split.us.split, label %._crit_edge, !llvm.loop !29

.lr.ph.split:                                     ; preds = %.lr.ph
  br i1 %.not27, label %.lr.ph.split.split.us, label %.lr.ph.split.split

.lr.ph.split.split.us:                            ; preds = %.lr.ph.split, %.lr.ph.split.split.us
  %.029.us30 = phi i32 [ %29, %.lr.ph.split.split.us ], [ %2, %.lr.ph.split ]
  %.02428.us31 = phi i32 [ %30, %.lr.ph.split.split.us ], [ %3, %.lr.ph.split ]
  %27 = tail call zeroext i8 @tvb_get_uint8(ptr noundef %1, i32 noundef %.029.us30)
  %28 = zext i8 %27 to i32
  tail call void (ptr, i32, ptr, ...) @col_append_fstr(ptr noundef %4, i32 noundef 25, ptr noundef nonnull @.str.267, i32 noundef %28)
  tail call void (ptr, ptr, ...) @proto_item_append_text(ptr noundef %11, ptr noundef nonnull @.str.337, i32 noundef %28)
  %29 = add i32 %.029.us30, 1
  %30 = add nsw i32 %.02428.us31, -1
  %31 = icmp samesign ugt i32 %.02428.us31, 1
  br i1 %31, label %.lr.ph.split.split.us, label %._crit_edge, !llvm.loop !29

.lr.ph.split.split:                               ; preds = %.lr.ph.split, %.lr.ph.split.split
  %.029 = phi i32 [ %34, %.lr.ph.split.split ], [ %2, %.lr.ph.split ]
  %.02428 = phi i32 [ %35, %.lr.ph.split.split ], [ %3, %.lr.ph.split ]
  %32 = tail call zeroext i8 @tvb_get_uint8(ptr noundef %1, i32 noundef %.029)
  %33 = zext i8 %32 to i32
  tail call void (ptr, i32, ptr, ...) @col_append_fstr(ptr noundef %4, i32 noundef 25, ptr noundef nonnull @.str.267, i32 noundef %33)
  tail call void (ptr, ptr, ...) @proto_item_append_text(ptr noundef %5, ptr noundef nonnull @.str.267, i32 noundef %33)
  tail call void (ptr, ptr, ...) @proto_item_append_text(ptr noundef %11, ptr noundef nonnull @.str.337, i32 noundef %33)
  %34 = add i32 %.029, 1
  %35 = add nsw i32 %.02428, -1
  %36 = icmp samesign ugt i32 %.02428, 1
  br i1 %36, label %.lr.ph.split.split, label %._crit_edge, !llvm.loop !29

._crit_edge:                                      ; preds = %.lr.ph.split.split, %.lr.ph.split.split.us, %.lr.ph.split.us.split, %.lr.ph.split.us.split.us, %15
  ret ptr %11
}